; Function Attrs: mustprogress nofree norecurse nosync nounwind willreturn memory(read, inaccessiblemem: none) uwtable
define hidden noundef i32 @_ZN3smt13theory_recfun9get_depthEP4expr(ptr nocapture noundef nonnull readonly align 8 dereferenceable(212) %this, ptr noundef readonly %e) local_unnamed_addr #8 align 2 {
entry:
  %m_pred_depth = getelementptr inbounds i8, ptr %this, i64 144
  %m_hash.i.i.i.i.i.i.i = getelementptr inbounds i8, ptr %e, i64 12
  %0 = load i32, ptr %m_hash.i.i.i.i.i.i.i, align 4
  %m_capacity.i.i.i = getelementptr inbounds i8, ptr %this, i64 152
  %1 = load i32, ptr %m_capacity.i.i.i, align 8
  %sub.i.i.i = add i32 %1, -1
  %and.i.i.i = and i32 %sub.i.i.i, %0
  %2 = load ptr, ptr %m_pred_depth, align 8
  %idx.ext.i.i.i = zext i32 %and.i.i.i to i64
  %add.ptr.i.i.i = getelementptr inbounds %"class.obj_map<expr, unsigned int>::obj_map_entry", ptr %2, i64 %idx.ext.i.i.i
  %idx.ext4.i.i.i = zext i32 %1 to i64
  %add.ptr5.i.i.i = getelementptr inbounds %"class.obj_map<expr, unsigned int>::obj_map_entry", ptr %2, i64 %idx.ext4.i.i.i
  %cmp.not30.i.i.i = icmp eq i32 %and.i.i.i, %1
  br i1 %cmp.not30.i.i.i, label %for.cond18.preheader.i.i.i, label %for.body.i.i.i

for.cond18.preheader.i.i.i:                       ; preds = %for.inc.i.i.i, %entry
  %cmp19.not32.i.i.i = icmp eq i32 %and.i.i.i, 0
  br i1 %cmp19.not32.i.i.i, label %_ZNK7obj_mapI4exprjE4findEPS0_Rj.exit, label %for.body20.i.i.i

for.body.i.i.i:                                   ; preds = %entry, %for.inc.i.i.i
  %curr.031.i.i.i = phi ptr [ %incdec.ptr.i.i.i, %for.inc.i.i.i ], [ %add.ptr.i.i.i, %entry ]
  %3 = load ptr, ptr %curr.031.i.i.i, align 8
  %magicptr25.i.i.i = ptrtoint ptr %3 to i64
  switch i64 %magicptr25.i.i.i, label %if.then.i.i.i [
    i64 0, label %_ZNK7obj_mapI4exprjE4findEPS0_Rj.exit
    i64 1, label %for.inc.i.i.i
  ]

if.then.i.i.i:                                    ; preds = %for.body.i.i.i
  %m_hash.i.i.i.i.i.i = getelementptr inbounds i8, ptr %3, i64 12
  %4 = load i32, ptr %m_hash.i.i.i.i.i.i, align 4
  %cmp8.i.i.i = icmp eq i32 %4, %0
  %cmp.i.i.i.i.i.i = icmp eq ptr %3, %e
  %or.cond.i.i.i = and i1 %cmp.i.i.i.i.i.i, %cmp8.i.i.i
  br i1 %or.cond.i.i.i, label %if.then.i, label %for.inc.i.i.i

for.inc.i.i.i:                                    ; preds = %if.then.i.i.i, %for.body.i.i.i
  %incdec.ptr.i.i.i = getelementptr inbounds i8, ptr %curr.031.i.i.i, i64 16
  %cmp.not.i.i.i = icmp eq ptr %incdec.ptr.i.i.i, %add.ptr5.i.i.i
  br i1 %cmp.not.i.i.i, label %for.cond18.preheader.i.i.i, label %for.body.i.i.i, !llvm.loop !14

for.body20.i.i.i:                                 ; preds = %for.cond18.preheader.i.i.i, %for.inc36.i.i.i
  %curr.133.i.i.i = phi ptr [ %incdec.ptr37.i.i.i, %for.inc36.i.i.i ], [ %2, %for.cond18.preheader.i.i.i ]
  %5 = load ptr, ptr %curr.133.i.i.i, align 8
  %magicptr27.i.i.i = ptrtoint ptr %5 to i64
  switch i64 %magicptr27.i.i.i, label %if.then22.i.i.i [
    i64 0, label %_ZNK7obj_mapI4exprjE4findEPS0_Rj.exit
    i64 1, label %for.inc36.i.i.i
  ]

if.then22.i.i.i:                                  ; preds = %for.body20.i.i.i
  %m_hash.i.i.i22.i.i.i = getelementptr inbounds i8, ptr %5, i64 12
  %6 = load i32, ptr %m_hash.i.i.i22.i.i.i, align 4
  %cmp24.i.i.i = icmp eq i32 %6, %0
  %cmp.i.i.i23.i.i.i = icmp eq ptr %5, %e
  %or.cond26.i.i.i = and i1 %cmp.i.i.i23.i.i.i, %cmp24.i.i.i
  br i1 %or.cond26.i.i.i, label %if.then.i, label %for.inc36.i.i.i

for.inc36.i.i.i:                                  ; preds = %if.then22.i.i.i, %for.body20.i.i.i
  %incdec.ptr37.i.i.i = getelementptr inbounds i8, ptr %curr.133.i.i.i, i64 16
  %cmp19.not.i.i.i = icmp eq ptr %incdec.ptr37.i.i.i, %add.ptr.i.i.i
  br i1 %cmp19.not.i.i.i, label %_ZNK7obj_mapI4exprjE4findEPS0_Rj.exit, label %for.body20.i.i.i, !llvm.loop !15

if.then.i:                                        ; preds = %if.then.i.i.i, %if.then22.i.i.i
  %retval.0.i.i.i = phi ptr [ %curr.133.i.i.i, %if.then22.i.i.i ], [ %curr.031.i.i.i, %if.then.i.i.i ]
  %m_value.i = getelementptr inbounds i8, ptr %retval.0.i.i.i, i64 8
  %7 = load i32, ptr %m_value.i, align 8
  br label %_ZNK7obj_mapI4exprjE4findEPS0_Rj.exit

_ZNK7obj_mapI4exprjE4findEPS0_Rj.exit:            ; preds = %for.body.i.i.i, %for.body20.i.i.i, %for.inc36.i.i.i, %for.cond18.preheader.i.i.i, %if.then.i
  %d.0 = phi i32 [ 0, %for.cond18.preheader.i.i.i ], [ %7, %if.then.i ], [ 0, %for.inc36.i.i.i ], [ 0, %for.body20.i.i.i ], [ 0, %for.body.i.i.i ]
  ret i32 %d.0
}